target datalayout = "e-m:e-p270:32:32-p271:32:32-p272:64:64-i64:64-i128:128-f80:128-n8:16:32:64-S128"
target triple = "x86_64-unknown-linux-gnu"

%"struct.std::atomic.14" = type { %"struct.std::__atomic_base.15" }
%"struct.std::__atomic_base.15" = type { i8 }
%"class.std::shared_ptr" = type { %"class.std::__shared_ptr" }
%"class.std::__shared_ptr" = type { ptr, %"class.std::__shared_count" }
%"class.std::__shared_count" = type { ptr }
%"class.grpc_event_engine::experimental::EventEngine::ResolvedAddress" = type { [128 x i8], i32 }
%"struct.grpc_event_engine::experimental::ListenerSocketsContainer::ListenerSocket" = type { %"class.grpc_event_engine::experimental::PosixSocketWrapper", i32, i8, %"class.grpc_event_engine::experimental::EventEngine::ResolvedAddress", i32 }
%"class.grpc_event_engine::experimental::PosixSocketWrapper" = type { i32 }
%"class.grpc_event_engine::experimental::PosixEngineListenerImpl::AsyncConnectionAcceptor" = type <{ %"struct.std::atomic.9", [4 x i8], %"class.std::shared_ptr", %"class.std::shared_ptr.11", %"struct.grpc_event_engine::experimental::ListenerSocketsContainer::ListenerSocket", [4 x i8], ptr, ptr, %"struct.std::atomic.14", [7 x i8] }>
%"struct.std::atomic.9" = type { %"struct.std::__atomic_base.10" }
%"struct.std::__atomic_base.10" = type { i32 }
%"class.std::shared_ptr.11" = type { %"class.std::__shared_ptr.12" }
%"class.std::__shared_ptr.12" = type { ptr, %"class.std::__shared_count" }
%class.anon = type { ptr }

; Function Attrs: mustprogress nounwind uwtable
define linkonce_odr noundef i32 @_ZStanSt12memory_orderSt23__memory_order_modifier(i32 noundef %__m, i32 noundef %__mod) #5 comdat {
entry:
  %__m.addr = alloca i32, align 4
  %__mod.addr = alloca i32, align 4
  store i32 %__m, ptr %__m.addr, align 4
  store i32 %__mod, ptr %__mod.addr, align 4
  %0 = load i32, ptr %__m.addr, align 4
  %1 = load i32, ptr %__mod.addr, align 4
  %and = and i32 %0, %1
  ret i32 %and
}

; Function Attrs: mustprogress nounwind uwtable
define linkonce_odr void @_ZN17grpc_event_engine12experimental23PosixEngineListenerImpl23AsyncConnectionAcceptor5UnrefEv(ptr noundef nonnull align 8 dereferenceable(209) %this) #5 comdat align 2 {
entry:
  %this.addr.i = alloca ptr, align 8
  %__i.addr.i = alloca i32, align 4
  %__m.addr.i = alloca i32, align 4
  %.atomictmp.i = alloca i32, align 4
  %atomic-temp.i = alloca i32, align 4
  %this.addr = alloca ptr, align 8
  store ptr %this, ptr %this.addr, align 8
  %this1 = load ptr, ptr %this.addr, align 8
  %ref_count_ = getelementptr inbounds %"class.grpc_event_engine::experimental::PosixEngineListenerImpl::AsyncConnectionAcceptor", ptr %this1, i32 0, i32 0
  store ptr %ref_count_, ptr %this.addr.i, align 8
  store i32 1, ptr %__i.addr.i, align 4
  store i32 4, ptr %__m.addr.i, align 4
  %this1.i = load ptr, ptr %this.addr.i, align 8
  %0 = load i32, ptr %__m.addr.i, align 4
  %1 = load i32, ptr %__i.addr.i, align 4
  store i32 %1, ptr %.atomictmp.i, align 4
  switch i32 %0, label %monotonic.i [
    i32 1, label %acquire.i
    i32 2, label %acquire.i
    i32 3, label %release.i
    i32 4, label %acqrel.i
    i32 5, label %seqcst.i
  ]

monotonic.i:                                      ; preds = %entry
  %2 = load i32, ptr %.atomictmp.i, align 4
  %3 = atomicrmw sub ptr %this1.i, i32 %2 monotonic, align 4
  store i32 %3, ptr %atomic-temp.i, align 4
  br label %_ZNSt13__atomic_baseIiE9fetch_subEiSt12memory_order.exit

acquire.i:                                        ; preds = %entry, %entry
  %4 = load i32, ptr %.atomictmp.i, align 4
  %5 = atomicrmw sub ptr %this1.i, i32 %4 acquire, align 4
  store i32 %5, ptr %atomic-temp.i, align 4
  br label %_ZNSt13__atomic_baseIiE9fetch_subEiSt12memory_order.exit

release.i:                                        ; preds = %entry
  %6 = load i32, ptr %.atomictmp.i, align 4
  %7 = atomicrmw sub ptr %this1.i, i32 %6 release, align 4
  store i32 %7, ptr %atomic-temp.i, align 4
  br label %_ZNSt13__atomic_baseIiE9fetch_subEiSt12memory_order.exit

acqrel.i:                                         ; preds = %entry
  %8 = load i32, ptr %.atomictmp.i, align 4
  %9 = atomicrmw sub ptr %this1.i, i32 %8 acq_rel, align 4
  store i32 %9, ptr %atomic-temp.i, align 4
  br label %_ZNSt13__atomic_baseIiE9fetch_subEiSt12memory_order.exit

seqcst.i:                                         ; preds = %entry
  %10 = load i32, ptr %.atomictmp.i, align 4
  %11 = atomicrmw sub ptr %this1.i, i32 %10 seq_cst, align 4
  store i32 %11, ptr %atomic-temp.i, align 4
  br label %_ZNSt13__atomic_baseIiE9fetch_subEiSt12memory_order.exit

_ZNSt13__atomic_baseIiE9fetch_subEiSt12memory_order.exit: ; preds = %seqcst.i, %acqrel.i, %release.i, %acquire.i, %monotonic.i
  %12 = load i32, ptr %atomic-temp.i, align 4
  %cmp = icmp eq i32 %12, 1
  br i1 %cmp, label %if.then, label %if.end

if.then:                                          ; preds = %_ZNSt13__atomic_baseIiE9fetch_subEiSt12memory_order.exit
  %isnull = icmp eq ptr %this1, null
  br i1 %isnull, label %delete.end, label %delete.notnull

delete.notnull:                                   ; preds = %if.then
  call void @_ZN17grpc_event_engine12experimental23PosixEngineListenerImpl23AsyncConnectionAcceptorD2Ev(ptr noundef nonnull align 8 dereferenceable(209) %this1) #3
  call void @_ZdlPv(ptr noundef %this1) #21
  br label %delete.end

delete.end:                                       ; preds = %delete.notnull, %if.then
  br label %if.end

if.end:                                           ; preds = %delete.end, %_ZNSt13__atomic_baseIiE9fetch_subEiSt12memory_order.exit
  ret void
}

; Function Attrs: mustprogress nounwind uwtable
define linkonce_odr void @_ZNSt6atomicIbE5storeEbSt12memory_order(ptr noundef nonnull align 1 dereferenceable(1) %this, i1 noundef zeroext %__i, i32 noundef %__m) #5 comdat align 2 {
entry:
  %this.addr.i = alloca ptr, align 8
  %__i.addr.i = alloca i8, align 1
  %__m.addr.i = alloca i32, align 4
  %__b.i = alloca i32, align 4
  %.atomictmp.i = alloca i8, align 1
  %this.addr = alloca ptr, align 8
  %__i.addr = alloca i8, align 1
  %__m.addr = alloca i32, align 4
  store ptr %this, ptr %this.addr, align 8
  %frombool = zext i1 %__i to i8
  store i8 %frombool, ptr %__i.addr, align 1
  store i32 %__m, ptr %__m.addr, align 4
  %this1 = load ptr, ptr %this.addr, align 8
  %_M_base = getelementptr inbounds %"struct.std::atomic.14", ptr %this1, i32 0, i32 0
  %0 = load i8, ptr %__i.addr, align 1
  %tobool = trunc i8 %0 to i1
  %1 = load i32, ptr %__m.addr, align 4
  store ptr %_M_base, ptr %this.addr.i, align 8
  %frombool.i = zext i1 %tobool to i8
  store i8 %frombool.i, ptr %__i.addr.i, align 1
  store i32 %1, ptr %__m.addr.i, align 4
  %this1.i = load ptr, ptr %this.addr.i, align 8
  %2 = load i32, ptr %__m.addr.i, align 4
  %call.i = call noundef i32 @_ZStanSt12memory_orderSt23__memory_order_modifier(i32 noundef %2, i32 noundef 65535)
  store i32 %call.i, ptr %__b.i, align 4
  %3 = load i32, ptr %__m.addr.i, align 4
  %4 = load i8, ptr %__i.addr.i, align 1
  %tobool.i = trunc i8 %4 to i1
  %frombool8.i = zext i1 %tobool.i to i8
  store i8 %frombool8.i, ptr %.atomictmp.i, align 1
  switch i32 %3, label %monotonic.i [
    i32 3, label %release.i
    i32 5, label %seqcst.i
  ]

monotonic.i:                                      ; preds = %entry
  %5 = load i8, ptr %.atomictmp.i, align 1
  store atomic i8 %5, ptr %this1.i monotonic, align 1
  br label %_ZNSt13__atomic_baseIbE5storeEbSt12memory_order.exit

release.i:                                        ; preds = %entry
  %6 = load i8, ptr %.atomictmp.i, align 1
  store atomic i8 %6, ptr %this1.i release, align 1
  br label %_ZNSt13__atomic_baseIbE5storeEbSt12memory_order.exit

seqcst.i:                                         ; preds = %entry
  %7 = load i8, ptr %.atomictmp.i, align 1
  store atomic i8 %7, ptr %this1.i seq_cst, align 1
  br label %_ZNSt13__atomic_baseIbE5storeEbSt12memory_order.exit

_ZNSt13__atomic_baseIbE5storeEbSt12memory_order.exit: ; preds = %seqcst.i, %release.i, %monotonic.i
  ret void
}

; Function Attrs: mustprogress uwtable
define internal void @"_ZZN17grpc_event_engine12experimental23PosixEngineListenerImpl23AsyncConnectionAcceptor14NotifyOnAcceptEN4absl12lts_202308026StatusEENK3$_0clEv"(ptr noundef nonnull align 8 dereferenceable(8) %this) #4 align 2 {
entry:
  %this.addr = alloca ptr, align 8
  store ptr %this, ptr %this.addr, align 8
  %this1 = load ptr, ptr %this.addr, align 8
  %0 = getelementptr inbounds %class.anon, ptr %this1, i32 0, i32 0
  %1 = load ptr, ptr %0, align 8
  %retry_timer_armed_ = getelementptr inbounds %"class.grpc_event_engine::experimental::PosixEngineListenerImpl::AsyncConnectionAcceptor", ptr %1, i32 0, i32 8
  call void @_ZNSt6atomicIbE5storeEbSt12memory_order(ptr noundef nonnull align 1 dereferenceable(1) %retry_timer_armed_, i1 noundef zeroext false, i32 noundef 5) #3
  %handle_ = getelementptr inbounds %"class.grpc_event_engine::experimental::PosixEngineListenerImpl::AsyncConnectionAcceptor", ptr %1, i32 0, i32 6
  %2 = load ptr, ptr %handle_, align 8
  %vtable = load ptr, ptr %2, align 8
  %vfn = getelementptr inbounds ptr, ptr %vtable, i64 9
  %3 = load ptr, ptr %vfn, align 8
  %call = call noundef zeroext i1 %3(ptr noundef nonnull align 8 dereferenceable(8) %2)
  br i1 %call, label %if.end, label %if.then

if.then:                                          ; preds = %entry
  %handle_2 = getelementptr inbounds %"class.grpc_event_engine::experimental::PosixEngineListenerImpl::AsyncConnectionAcceptor", ptr %1, i32 0, i32 6
  %4 = load ptr, ptr %handle_2, align 8
  %vtable3 = load ptr, ptr %4, align 8
  %vfn4 = getelementptr inbounds ptr, ptr %vtable3, i64 6
  %5 = load ptr, ptr %vfn4, align 8
  call void %5(ptr noundef nonnull align 8 dereferenceable(8) %4)
  br label %if.end

if.end:                                           ; preds = %if.then, %entry
  call void @_ZN17grpc_event_engine12experimental23PosixEngineListenerImpl23AsyncConnectionAcceptor5UnrefEv(ptr noundef nonnull align 8 dereferenceable(209) %1)
  ret void
}

; Function Attrs: mustprogress uwtable
define internal void @"_ZSt13__invoke_implIvRZN17grpc_event_engine12experimental23PosixEngineListenerImpl23AsyncConnectionAcceptor14NotifyOnAcceptEN4absl12lts_202308026StatusEE3$_0JEET_St14__invoke_otherOT0_DpOT1_"(ptr noundef nonnull align 8 dereferenceable(8) %__f) #4 {
entry:
  %__f.addr = alloca ptr, align 8
  store ptr %__f, ptr %__f.addr, align 8
  %0 = load ptr, ptr %__f.addr, align 8
  call void @"_ZZN17grpc_event_engine12experimental23PosixEngineListenerImpl23AsyncConnectionAcceptor14NotifyOnAcceptEN4absl12lts_202308026StatusEENK3$_0clEv"(ptr noundef nonnull align 8 dereferenceable(8) %0)
  ret void
}

; Function Attrs: mustprogress uwtable
define internal void @"_ZSt8__invokeIRZN17grpc_event_engine12experimental23PosixEngineListenerImpl23AsyncConnectionAcceptor14NotifyOnAcceptEN4absl12lts_202308026StatusEE3$_0JEENSt15__invoke_resultIT_JDpT0_EE4typeEOSA_DpOSB_"(ptr noundef nonnull align 8 dereferenceable(8) %__fn) #4 {
entry:
  %__fn.addr = alloca ptr, align 8
  store ptr %__fn, ptr %__fn.addr, align 8
  %0 = load ptr, ptr %__fn.addr, align 8
  call void @"_ZSt13__invoke_implIvRZN17grpc_event_engine12experimental23PosixEngineListenerImpl23AsyncConnectionAcceptor14NotifyOnAcceptEN4absl12lts_202308026StatusEE3$_0JEET_St14__invoke_otherOT0_DpOT1_"(ptr noundef nonnull align 8 dereferenceable(8) %0)
  ret void
}

; Function Attrs: mustprogress uwtable
define internal void @"_ZSt6invokeIRZN17grpc_event_engine12experimental23PosixEngineListenerImpl23AsyncConnectionAcceptor14NotifyOnAcceptEN4absl12lts_202308026StatusEE3$_0JEENSt13invoke_resultIT_JDpT0_EE4typeEOSA_DpOSB_"(ptr noundef nonnull align 8 dereferenceable(8) %__fn) #4 {
entry:
  %__fn.addr = alloca ptr, align 8
  store ptr %__fn, ptr %__fn.addr, align 8
  %0 = load ptr, ptr %__fn.addr, align 8
  call void @"_ZSt8__invokeIRZN17grpc_event_engine12experimental23PosixEngineListenerImpl23AsyncConnectionAcceptor14NotifyOnAcceptEN4absl12lts_202308026StatusEE3$_0JEENSt15__invoke_resultIT_JDpT0_EE4typeEOSA_DpOSB_"(ptr noundef nonnull align 8 dereferenceable(8) %0)
  ret void
}

; Function Attrs: mustprogress nounwind uwtable
define internal noundef ptr @"_ZSt7launderIZN17grpc_event_engine12experimental23PosixEngineListenerImpl23AsyncConnectionAcceptor14NotifyOnAcceptEN4absl12lts_202308026StatusEE3$_0EPT_S9_"(ptr noundef %__p) #5 {
entry:
  %__p.addr = alloca ptr, align 8
  store ptr %__p, ptr %__p.addr, align 8
  %0 = load ptr, ptr %__p.addr, align 8
  ret ptr %0
}

; Function Attrs: mustprogress uwtable
define internal void @"_ZN4absl12lts_2023080222internal_any_invocable7InvokeRIvRZN17grpc_event_engine12experimental23PosixEngineListenerImpl23AsyncConnectionAcceptor14NotifyOnAcceptENS0_6StatusEE3$_0JEvEEvOT0_DpOT1_"(ptr noundef nonnull align 8 dereferenceable(8) %f) #4 {
entry:
  %f.addr = alloca ptr, align 8
  store ptr %f, ptr %f.addr, align 8
  %0 = load ptr, ptr %f.addr, align 8
  call void @"_ZSt6invokeIRZN17grpc_event_engine12experimental23PosixEngineListenerImpl23AsyncConnectionAcceptor14NotifyOnAcceptEN4absl12lts_202308026StatusEE3$_0JEENSt13invoke_resultIT_JDpT0_EE4typeEOSA_DpOSB_"(ptr noundef nonnull align 8 dereferenceable(8) %0)
  ret void
}

; Function Attrs: mustprogress nounwind uwtable
define internal noundef nonnull align 8 dereferenceable(8) ptr @"_ZN4absl12lts_2023080222internal_any_invocable20ObjectInLocalStorageIZN17grpc_event_engine12experimental23PosixEngineListenerImpl23AsyncConnectionAcceptor14NotifyOnAcceptENS0_6StatusEE3$_0EERT_PNS1_15TypeErasedStateE"(ptr noundef %state) #5 {
entry:
  %state.addr = alloca ptr, align 8
  store ptr %state, ptr %state.addr, align 8
  %0 = load ptr, ptr %state.addr, align 8
  %call = call noundef ptr @"_ZSt7launderIZN17grpc_event_engine12experimental23PosixEngineListenerImpl23AsyncConnectionAcceptor14NotifyOnAcceptEN4absl12lts_202308026StatusEE3$_0EPT_S9_"(ptr noundef %0) #3
  ret ptr %call
}

; Function Attrs: mustprogress uwtable
define internal void @"_ZN4absl12lts_2023080222internal_any_invocable12LocalInvokerILb0EvRZN17grpc_event_engine12experimental23PosixEngineListenerImpl23AsyncConnectionAcceptor14NotifyOnAcceptENS0_6StatusEE3$_0JEEET0_PNS1_15TypeErasedStateEDpNS1_18ForwardedParameterIT2_E4typeE"(ptr noundef %state) #4 {
entry:
  %state.addr = alloca ptr, align 8
  %f = alloca ptr, align 8
  store ptr %state, ptr %state.addr, align 8
  %0 = load ptr, ptr %state.addr, align 8
  %call = call noundef nonnull align 8 dereferenceable(8) ptr @"_ZN4absl12lts_2023080222internal_any_invocable20ObjectInLocalStorageIZN17grpc_event_engine12experimental23PosixEngineListenerImpl23AsyncConnectionAcceptor14NotifyOnAcceptENS0_6StatusEE3$_0EERT_PNS1_15TypeErasedStateE"(ptr noundef %0)
  store ptr %call, ptr %f, align 8
  %1 = load ptr, ptr %f, align 8
  call void @"_ZN4absl12lts_2023080222internal_any_invocable7InvokeRIvRZN17grpc_event_engine12experimental23PosixEngineListenerImpl23AsyncConnectionAcceptor14NotifyOnAcceptENS0_6StatusEE3$_0JEvEEvOT0_DpOT1_"(ptr noundef nonnull align 8 dereferenceable(8) %1)
  ret void
}