; Function Attrs: mustprogress uwtable
define internal void @"_ZN4absl12lts_2023080222internal_any_invocable12LocalInvokerILb0EvRZN17grpc_event_engine12experimental23PosixEngineListenerImpl23AsyncConnectionAcceptor14NotifyOnAcceptENS0_6StatusEE3$_0JEEET0_PNS1_15TypeErasedStateEDpNS1_18ForwardedParameterIT2_E4typeE"(ptr nocapture noundef readonly %state) #3 {
entry:
  %0 = load ptr, ptr %state, align 8
  %retry_timer_armed_.i.i.i.i.i = getelementptr inbounds i8, ptr %0, i64 208
  store atomic i8 0, ptr %retry_timer_armed_.i.i.i.i.i seq_cst, align 1
  %handle_.i.i.i.i.i = getelementptr inbounds i8, ptr %0, i64 192
  %1 = load ptr, ptr %handle_.i.i.i.i.i, align 8
  %vtable.i.i.i.i.i = load ptr, ptr %1, align 8
  %vfn.i.i.i.i.i = getelementptr inbounds i8, ptr %vtable.i.i.i.i.i, i64 72
  %2 = load ptr, ptr %vfn.i.i.i.i.i, align 8
  %call.i.i.i.i.i = tail call noundef zeroext i1 %2(ptr noundef nonnull align 8 dereferenceable(8) %1)
  br i1 %call.i.i.i.i.i, label %if.end.i.i.i.i.i, label %if.then.i.i.i.i.i

if.then.i.i.i.i.i:                                ; preds = %entry
  %3 = load ptr, ptr %handle_.i.i.i.i.i, align 8
  %vtable3.i.i.i.i.i = load ptr, ptr %3, align 8
  %vfn4.i.i.i.i.i = getelementptr inbounds i8, ptr %vtable3.i.i.i.i.i, i64 48
  %4 = load ptr, ptr %vfn4.i.i.i.i.i, align 8
  tail call void %4(ptr noundef nonnull align 8 dereferenceable(8) %3)
  br label %if.end.i.i.i.i.i

if.end.i.i.i.i.i:                                 ; preds = %if.then.i.i.i.i.i, %entry
  %5 = atomicrmw sub ptr %0, i32 1 acq_rel, align 4
  %cmp.not.i.i.i.i.i.i = icmp eq i32 %5, 1
  br i1 %cmp.not.i.i.i.i.i.i, label %delete.notnull.i.i.i.i.i.i, label %"_ZN4absl12lts_2023080222internal_any_invocable7InvokeRIvRZN17grpc_event_engine12experimental23PosixEngineListenerImpl23AsyncConnectionAcceptor14NotifyOnAcceptENS0_6StatusEE3$_0JEvEEvOT0_DpOT1_.exit"

delete.notnull.i.i.i.i.i.i:                       ; preds = %if.end.i.i.i.i.i
  tail call void @_ZN17grpc_event_engine12experimental23PosixEngineListenerImpl23AsyncConnectionAcceptorD2Ev(ptr noundef nonnull align 8 dereferenceable(209) %0) #21
  tail call void @_ZdlPv(ptr noundef nonnull %0) #25
  br label %"_ZN4absl12lts_2023080222internal_any_invocable7InvokeRIvRZN17grpc_event_engine12experimental23PosixEngineListenerImpl23AsyncConnectionAcceptor14NotifyOnAcceptENS0_6StatusEE3$_0JEvEEvOT0_DpOT1_.exit"

"_ZN4absl12lts_2023080222internal_any_invocable7InvokeRIvRZN17grpc_event_engine12experimental23PosixEngineListenerImpl23AsyncConnectionAcceptor14NotifyOnAcceptENS0_6StatusEE3$_0JEvEEvOT0_DpOT1_.exit": ; preds = %if.end.i.i.i.i.i, %delete.notnull.i.i.i.i.i.i
  ret void
}